target datalayout = "e-m:e-p270:32:32-p271:32:32-p272:64:64-i64:64-i128:128-f80:128-n8:16:32:64-S128"
target triple = "x86_64-pc-linux-gnu"

%struct.rb_data_type_struct = type { ptr, %struct.anon.14, ptr, ptr, i64 }
%struct.anon.14 = type { ptr, ptr, ptr, ptr, [1 x ptr] }
%struct.RBasic = type { i64, i64 }
%struct.rb_execution_context_struct = type { ptr, i64, ptr, ptr, i32, i32, ptr, ptr, ptr, i64, i64, i64, ptr, i64, ptr, i64, i64, i8, i8, i64, %struct.anon.7 }
%struct.anon.7 = type { ptr, ptr, i64, [1 x %struct.__jmp_buf_tag] }
%struct.__jmp_buf_tag = type { [8 x i64], i32, %struct.__sigset_t }
%struct.__sigset_t = type { [16 x i64] }
%struct.METHOD = type { i64, i64, i64, i64, ptr }
%struct.rb_method_entry_struct = type { i64, i64, ptr, i64, i64 }
%struct.rb_callable_method_entry_struct = type { i64, i64, ptr, i64, i64 }

@rb_cProc = dso_local global i64 0, align 8
@method_data_type = internal constant %struct.rb_data_type_struct { ptr @.str.53, %struct.anon.14 { ptr @bm_mark_and_move, ptr inttoptr (i64 -1 to ptr), ptr null, ptr @bm_mark_and_move, [1 x ptr] zeroinitializer }, ptr null, ptr null, i64 35 }, align 8
@ruby_current_ec = external thread_local global ptr, align 8
@.str.75 = private unnamed_addr constant [44 x i8] c"method_callable_method_entry: not callable.\00", align 1
@rb_cFalseClass = external global i64, align 8
@rb_cNilClass = external global i64, align 8
@rb_cTrueClass = external global i64, align 8
@rb_cInteger = external global i64, align 8
@rb_cSymbol = external global i64, align 8
@rb_cFloat = external global i64, align 8

; Function Attrs: inlinehint nounwind sspstrong willreturn memory(none) uwtable
define internal zeroext i1 @RB_IMMEDIATE_P(i64 noundef %0) #12 {
  %2 = alloca i64, align 8
  store i64 %0, ptr %2, align 8, !tbaa !7
  %3 = load i64, ptr %2, align 8, !tbaa !7
  %4 = and i64 %3, 7
  %5 = icmp ne i64 %4, 0
  ret i1 %5
}

; Function Attrs: nounwind sspstrong uwtable
define internal ptr @method_callable_method_entry(ptr noundef %0) #0 {
  %2 = alloca ptr, align 8
  store ptr %0, ptr %2, align 8, !tbaa !95
  %3 = load ptr, ptr %2, align 8, !tbaa !95
  %4 = getelementptr inbounds nuw %struct.METHOD, ptr %3, i32 0, i32 4
  %5 = load ptr, ptr %4, align 8, !tbaa !104
  %6 = getelementptr inbounds nuw %struct.rb_method_entry_struct, ptr %5, i32 0, i32 1
  %7 = load i64, ptr %6, align 8, !tbaa !127
  %8 = icmp eq i64 %7, 0
  br i1 %8, label %9, label %10

9:                                                ; preds = %1
  call void (ptr, ...) @rb_bug(ptr noundef @.str.75) #30
  unreachable

10:                                               ; preds = %1
  %11 = load ptr, ptr %2, align 8, !tbaa !95
  %12 = getelementptr inbounds nuw %struct.METHOD, ptr %11, i32 0, i32 4
  %13 = load ptr, ptr %12, align 8, !tbaa !104
  ret ptr %13
}

; Function Attrs: inlinehint nounwind sspstrong uwtable
define internal void @vm_block_handler_verify(i64 noundef %0) #3 {
  %2 = alloca i64, align 8
  store i64 %0, ptr %2, align 8, !tbaa !7
  ret void
}

; Function Attrs: inlinehint nounwind sspstrong willreturn memory(none) uwtable
define internal zeroext i1 @RB_NIL_P(i64 noundef %0) #12 {
  %2 = alloca i64, align 8
  store i64 %0, ptr %2, align 8, !tbaa !7
  %3 = load i64, ptr %2, align 8, !tbaa !7
  %4 = icmp eq i64 %3, 4
  ret i1 %4
}

; Function Attrs: inlinehint nounwind sspstrong willreturn memory(none) uwtable
define internal zeroext i1 @RB_FLONUM_P(i64 noundef %0) #12 {
  %2 = alloca i64, align 8
  store i64 %0, ptr %2, align 8, !tbaa !7
  %3 = load i64, ptr %2, align 8, !tbaa !7
  %4 = and i64 %3, 3
  %5 = icmp eq i64 %4, 2
  ret i1 %5
}

; Function Attrs: inlinehint nounwind sspstrong willreturn memory(none) uwtable
define internal zeroext i1 @RB_STATIC_SYM_P(i64 noundef %0) #12 {
  %2 = alloca i64, align 8
  %3 = alloca i64, align 8
  store i64 %0, ptr %2, align 8, !tbaa !7
  call void @llvm.lifetime.start.p0(i64 8, ptr %3) #25
  store i64 255, ptr %3, align 8, !tbaa !7
  %4 = load i64, ptr %2, align 8, !tbaa !7
  %5 = and i64 %4, 255
  %6 = icmp eq i64 %5, 12
  call void @llvm.lifetime.end.p0(i64 8, ptr %3) #25
  ret i1 %6
}

; Function Attrs: inlinehint nounwind sspstrong willreturn memory(none) uwtable
define internal zeroext i1 @RB_FIXNUM_P(i64 noundef %0) #12 {
  %2 = alloca i64, align 8
  store i64 %0, ptr %2, align 8, !tbaa !7
  %3 = load i64, ptr %2, align 8, !tbaa !7
  %4 = and i64 %3, 1
  %5 = icmp ne i64 %4, 0
  ret i1 %5
}

; Function Attrs: inlinehint nounwind sspstrong willreturn memory(read) uwtable
define internal i64 @RBASIC_CLASS(i64 noundef %0) #7 {
  %2 = alloca i64, align 8
  store i64 %0, ptr %2, align 8, !tbaa !7
  %3 = load i64, ptr %2, align 8, !tbaa !7
  %4 = inttoptr i64 %3 to ptr
  %5 = getelementptr inbounds nuw %struct.RBasic, ptr %4, i32 0, i32 1
  %6 = load i64, ptr %5, align 8, !tbaa !101
  ret i64 %6
}

; Function Attrs: inlinehint nounwind sspstrong willreturn memory(none) uwtable
define internal zeroext i1 @RB_SPECIAL_CONST_P(i64 noundef %0) #12 {
  %2 = alloca i64, align 8
  store i64 %0, ptr %2, align 8, !tbaa !7
  %3 = load i64, ptr %2, align 8, !tbaa !7
  %4 = icmp eq i64 %3, 0
  br i1 %4, label %8, label %5

5:                                                ; preds = %1
  %6 = load i64, ptr %2, align 8, !tbaa !7
  %7 = call zeroext i1 @RB_IMMEDIATE_P(i64 noundef %6) #29
  br label %8

8:                                                ; preds = %5, %1
  %9 = phi i1 [ true, %1 ], [ %7, %5 ]
  ret i1 %9
}

; Function Attrs: inlinehint nounwind sspstrong uwtable
define internal i64 @call_method_data(ptr noundef %0, ptr noundef %1, i32 noundef %2, ptr noundef %3, i64 noundef %4, i32 noundef %5) #3 {
  %7 = alloca ptr, align 8
  %8 = alloca ptr, align 8
  %9 = alloca i32, align 4
  %10 = alloca ptr, align 8
  %11 = alloca i64, align 8
  %12 = alloca i32, align 4
  store ptr %0, ptr %7, align 8, !tbaa !19
  store ptr %1, ptr %8, align 8, !tbaa !95
  store i32 %2, ptr %9, align 4, !tbaa !36
  store ptr %3, ptr %10, align 8, !tbaa !35
  store i64 %4, ptr %11, align 8, !tbaa !7
  store i32 %5, ptr %12, align 4, !tbaa !36
  %13 = load ptr, ptr %7, align 8, !tbaa !19
  %14 = load i64, ptr %11, align 8, !tbaa !7
  %15 = call i64 @proc_to_block_handler(i64 noundef %14)
  call void @vm_passed_block_handler_set(ptr noundef %13, i64 noundef %15)
  %16 = load ptr, ptr %7, align 8, !tbaa !19
  %17 = load ptr, ptr %8, align 8, !tbaa !95
  %18 = getelementptr inbounds nuw %struct.METHOD, ptr %17, i32 0, i32 0
  %19 = load i64, ptr %18, align 8, !tbaa !103
  %20 = load ptr, ptr %8, align 8, !tbaa !95
  %21 = getelementptr inbounds nuw %struct.METHOD, ptr %20, i32 0, i32 4
  %22 = load ptr, ptr %21, align 8, !tbaa !104
  %23 = getelementptr inbounds nuw %struct.rb_method_entry_struct, ptr %22, i32 0, i32 3
  %24 = load i64, ptr %23, align 8, !tbaa !105
  %25 = load i32, ptr %9, align 4, !tbaa !36
  %26 = load ptr, ptr %10, align 8, !tbaa !35
  %27 = load ptr, ptr %8, align 8, !tbaa !95
  %28 = call ptr @method_callable_method_entry(ptr noundef %27)
  %29 = load i32, ptr %12, align 4, !tbaa !36
  %30 = call i64 @rb_vm_call_kw(ptr noundef %16, i64 noundef %19, i64 noundef %24, i32 noundef %25, ptr noundef %26, ptr noundef %28, i32 noundef %29)
  ret i64 %30
}

; Function Attrs: inlinehint nounwind sspstrong uwtable
define internal void @vm_passed_block_handler_set(ptr noundef %0, i64 noundef %1) #3 {
  %3 = alloca ptr, align 8
  %4 = alloca i64, align 8
  store ptr %0, ptr %3, align 8, !tbaa !19
  store i64 %1, ptr %4, align 8, !tbaa !7
  %5 = load i64, ptr %4, align 8, !tbaa !7
  call void @vm_block_handler_verify(i64 noundef %5)
  %6 = load i64, ptr %4, align 8, !tbaa !7
  %7 = load ptr, ptr %3, align 8, !tbaa !19
  %8 = getelementptr inbounds nuw %struct.rb_execution_context_struct, ptr %7, i32 0, i32 16
  store i64 %6, ptr %8, align 8, !tbaa !149
  ret void
}

; Function Attrs: nounwind sspstrong uwtable
define internal i64 @proc_to_block_handler(i64 noundef %0) #0 {
  %2 = alloca i64, align 8
  store i64 %0, ptr %2, align 8, !tbaa !7
  %3 = load i64, ptr %2, align 8, !tbaa !7
  %4 = call zeroext i1 @RB_NIL_P(i64 noundef %3) #29
  br i1 %4, label %5, label %6

5:                                                ; preds = %1
  br label %8

6:                                                ; preds = %1
  %7 = load i64, ptr %2, align 8, !tbaa !7
  br label %8

8:                                                ; preds = %6, %5
  %9 = phi i64 [ 0, %5 ], [ %7, %6 ]
  ret i64 %9
}

; Function Attrs: inlinehint nounwind sspstrong willreturn memory(read) uwtable
define internal i64 @rb_class_of(i64 noundef %0) #7 {
  %2 = alloca i64, align 8
  %3 = alloca i64, align 8
  store i64 %0, ptr %3, align 8, !tbaa !7
  %4 = load i64, ptr %3, align 8, !tbaa !7
  %5 = call zeroext i1 @RB_SPECIAL_CONST_P(i64 noundef %4) #29
  br i1 %5, label %9, label %6

6:                                                ; preds = %1
  %7 = load i64, ptr %3, align 8, !tbaa !7
  %8 = call i64 @RBASIC_CLASS(i64 noundef %7) #28
  store i64 %8, ptr %2, align 8
  br label %46

9:                                                ; preds = %1
  %10 = load i64, ptr %3, align 8, !tbaa !7
  %11 = icmp eq i64 %10, 0
  br i1 %11, label %12, label %14

12:                                               ; preds = %9
  %13 = load i64, ptr @rb_cFalseClass, align 8, !tbaa !7
  store i64 %13, ptr %2, align 8
  br label %46

14:                                               ; preds = %9
  %15 = load i64, ptr %3, align 8, !tbaa !7
  %16 = icmp eq i64 %15, 4
  br i1 %16, label %17, label %19

17:                                               ; preds = %14
  %18 = load i64, ptr @rb_cNilClass, align 8, !tbaa !7
  store i64 %18, ptr %2, align 8
  br label %46

19:                                               ; preds = %14
  %20 = load i64, ptr %3, align 8, !tbaa !7
  %21 = icmp eq i64 %20, 20
  br i1 %21, label %22, label %24

22:                                               ; preds = %19
  %23 = load i64, ptr @rb_cTrueClass, align 8, !tbaa !7
  store i64 %23, ptr %2, align 8
  br label %46

24:                                               ; preds = %19
  %25 = load i64, ptr %3, align 8, !tbaa !7
  %26 = call zeroext i1 @RB_FIXNUM_P(i64 noundef %25) #29
  br i1 %26, label %27, label %29

27:                                               ; preds = %24
  %28 = load i64, ptr @rb_cInteger, align 8, !tbaa !7
  store i64 %28, ptr %2, align 8
  br label %46

29:                                               ; preds = %24
  %30 = load i64, ptr %3, align 8, !tbaa !7
  %31 = call zeroext i1 @RB_STATIC_SYM_P(i64 noundef %30) #29
  br i1 %31, label %32, label %34

32:                                               ; preds = %29
  %33 = load i64, ptr @rb_cSymbol, align 8, !tbaa !7
  store i64 %33, ptr %2, align 8
  br label %46

34:                                               ; preds = %29
  %35 = load i64, ptr %3, align 8, !tbaa !7
  %36 = call zeroext i1 @RB_FLONUM_P(i64 noundef %35) #29
  br i1 %36, label %37, label %39

37:                                               ; preds = %34
  %38 = load i64, ptr @rb_cFloat, align 8, !tbaa !7
  store i64 %38, ptr %2, align 8
  br label %46

39:                                               ; preds = %34
  br label %40

40:                                               ; preds = %39
  br label %41

41:                                               ; preds = %40
  br label %42

42:                                               ; preds = %41
  br label %43

43:                                               ; preds = %42
  br label %44

44:                                               ; preds = %43
  br label %45

45:                                               ; preds = %44
  unreachable

46:                                               ; preds = %37, %32, %27, %22, %17, %12, %6
  %47 = load i64, ptr %2, align 8
  ret i64 %47
}

; Function Attrs: inlinehint nounwind sspstrong uwtable
define internal ptr @rb_current_execution_context(i1 noundef zeroext %0) #3 {
  %2 = alloca i8, align 1
  %3 = alloca ptr, align 8
  %4 = zext i1 %0 to i8
  store i8 %4, ptr %2, align 1, !tbaa !32
  call void @llvm.lifetime.start.p0(i64 8, ptr %3) #25
  %5 = call align 8 ptr @llvm.threadlocal.address.p0(ptr align 8 @ruby_current_ec)
  %6 = load ptr, ptr %5, align 8, !tbaa !19
  store ptr %6, ptr %3, align 8, !tbaa !19
  %7 = load ptr, ptr %3, align 8, !tbaa !19
  call void @llvm.lifetime.end.p0(i64 8, ptr %3) #25
  ret ptr %7
}

; Function Attrs: nounwind sspstrong uwtable
define dso_local i64 @rb_block_proc() #0 {
  %1 = load i64, ptr @rb_cProc, align 8, !tbaa !7
  %2 = call i64 @proc_new(i64 noundef %1, i8 noundef signext 0)
  ret i64 %2
}

; Function Attrs: inlinehint nounwind sspstrong uwtable
define internal i32 @rb_check_arity(i32 noundef %0, i32 noundef %1, i32 noundef %2) #3 {
  %4 = alloca i32, align 4
  %5 = alloca i32, align 4
  %6 = alloca i32, align 4
  store i32 %0, ptr %4, align 4, !tbaa !36
  store i32 %1, ptr %5, align 4, !tbaa !36
  store i32 %2, ptr %6, align 4, !tbaa !36
  %7 = load i32, ptr %4, align 4, !tbaa !36
  %8 = load i32, ptr %5, align 4, !tbaa !36
  %9 = icmp slt i32 %7, %8
  br i1 %9, label %17, label %10

10:                                               ; preds = %3
  %11 = load i32, ptr %6, align 4, !tbaa !36
  %12 = icmp ne i32 %11, -1
  br i1 %12, label %13, label %21

13:                                               ; preds = %10
  %14 = load i32, ptr %4, align 4, !tbaa !36
  %15 = load i32, ptr %6, align 4, !tbaa !36
  %16 = icmp sgt i32 %14, %15
  br i1 %16, label %17, label %21

17:                                               ; preds = %13, %3
  %18 = load i32, ptr %4, align 4, !tbaa !36
  %19 = load i32, ptr %5, align 4, !tbaa !36
  %20 = load i32, ptr %6, align 4, !tbaa !36
  call void @rb_error_arity(i32 noundef %18, i32 noundef %19, i32 noundef %20) #27
  unreachable

21:                                               ; preds = %13, %10
  %22 = load i32, ptr %4, align 4, !tbaa !36
  ret i32 %22
}

; Function Attrs: nounwind sspstrong uwtable
define internal i64 @umethod_bind_call(i32 noundef %0, ptr noundef %1, i64 noundef %2) #0 {
  %4 = alloca i64, align 8
  %5 = alloca i32, align 4
  %6 = alloca ptr, align 8
  %7 = alloca i64, align 8
  %8 = alloca i64, align 8
  %9 = alloca i64, align 8
  %10 = alloca ptr, align 8
  %11 = alloca ptr, align 8
  %12 = alloca ptr, align 8
  %13 = alloca i32, align 4
  %14 = alloca i64, align 8
  %15 = alloca i64, align 8
  %16 = alloca i64, align 8
  %17 = alloca ptr, align 8
  %18 = alloca %struct.METHOD, align 8
  store i32 %0, ptr %5, align 4, !tbaa !36
  store ptr %1, ptr %6, align 8, !tbaa !35
  store i64 %2, ptr %7, align 8, !tbaa !7
  %19 = load i32, ptr %5, align 4, !tbaa !36
  %20 = call i32 @rb_check_arity(i32 noundef %19, i32 noundef 1, i32 noundef -1)
  call void @llvm.lifetime.start.p0(i64 8, ptr %8) #25
  %21 = load ptr, ptr %6, align 8, !tbaa !35
  %22 = getelementptr i64, ptr %21, i64 0
  %23 = load i64, ptr %22, align 8, !tbaa !7
  store i64 %23, ptr %8, align 8, !tbaa !7
  %24 = load i32, ptr %5, align 4, !tbaa !36
  %25 = add i32 %24, -1
  store i32 %25, ptr %5, align 4, !tbaa !36
  %26 = load ptr, ptr %6, align 8, !tbaa !35
  %27 = getelementptr i64, ptr %26, i32 1
  store ptr %27, ptr %6, align 8, !tbaa !35
  call void @llvm.lifetime.start.p0(i64 8, ptr %9) #25
  %28 = call i32 @rb_block_given_p()
  %29 = icmp ne i32 %28, 0
  br i1 %29, label %30, label %32

30:                                               ; preds = %3
  %31 = call i64 @rb_block_proc()
  br label %33

32:                                               ; preds = %3
  br label %33

33:                                               ; preds = %32, %30
  %34 = phi i64 [ %31, %30 ], [ 4, %32 ]
  store i64 %34, ptr %9, align 8, !tbaa !7
  call void @llvm.lifetime.start.p0(i64 8, ptr %10) #25
  %35 = call ptr @rb_current_execution_context(i1 noundef zeroext true)
  store ptr %35, ptr %10, align 8, !tbaa !19
  call void @llvm.lifetime.start.p0(i64 8, ptr %11) #25
  %36 = load i64, ptr %7, align 8, !tbaa !7
  %37 = call ptr @rb_check_typeddata(i64 noundef %36, ptr noundef @method_data_type)
  store ptr %37, ptr %11, align 8, !tbaa !95
  call void @llvm.lifetime.start.p0(i64 8, ptr %12) #25
  %38 = load i64, ptr %8, align 8, !tbaa !7
  %39 = call i64 @rb_class_of(i64 noundef %38) #28
  %40 = load ptr, ptr %11, align 8, !tbaa !95
  %41 = getelementptr inbounds nuw %struct.METHOD, ptr %40, i32 0, i32 4
  %42 = load ptr, ptr %41, align 8, !tbaa !104
  %43 = getelementptr inbounds nuw %struct.rb_method_entry_struct, ptr %42, i32 0, i32 3
  %44 = load i64, ptr %43, align 8, !tbaa !105
  %45 = call ptr @rb_callable_method_entry(i64 noundef %39, i64 noundef %44)
  store ptr %45, ptr %12, align 8, !tbaa !128
  %46 = load ptr, ptr %11, align 8, !tbaa !95
  %47 = getelementptr inbounds nuw %struct.METHOD, ptr %46, i32 0, i32 4
  %48 = load ptr, ptr %47, align 8, !tbaa !104
  %49 = load ptr, ptr %12, align 8, !tbaa !128
  %50 = icmp eq ptr %48, %49
  br i1 %50, label %51, label %69

51:                                               ; preds = %33
  %52 = load ptr, ptr %10, align 8, !tbaa !19
  %53 = load i64, ptr %9, align 8, !tbaa !7
  %54 = call i64 @proc_to_block_handler(i64 noundef %53)
  call void @vm_passed_block_handler_set(ptr noundef %52, i64 noundef %54)
  %55 = load ptr, ptr %10, align 8, !tbaa !19
  %56 = load i64, ptr %8, align 8, !tbaa !7
  %57 = load ptr, ptr %12, align 8, !tbaa !128
  %58 = getelementptr inbounds nuw %struct.rb_callable_method_entry_struct, ptr %57, i32 0, i32 3
  %59 = load i64, ptr %58, align 8, !tbaa !130
  %60 = load i32, ptr %5, align 4, !tbaa !36
  %61 = load ptr, ptr %6, align 8, !tbaa !35
  %62 = load ptr, ptr %12, align 8, !tbaa !128
  %63 = call i32 @rb_keyword_given_p()
  %64 = icmp ne i32 %63, 0
  %65 = xor i1 %64, true
  %66 = xor i1 %65, true
  %67 = zext i1 %66 to i32
  %68 = call i64 @rb_vm_call_kw(ptr noundef %55, i64 noundef %56, i64 noundef %59, i32 noundef %60, ptr noundef %61, ptr noundef %62, i32 noundef %67)
  store i64 %68, ptr %4, align 8
  store i32 1, ptr %13, align 4
  br label %91

69:                                               ; preds = %33
  call void @llvm.lifetime.start.p0(i64 8, ptr %14) #25
  call void @llvm.lifetime.start.p0(i64 8, ptr %15) #25
  call void @llvm.lifetime.start.p0(i64 8, ptr %16) #25
  call void @llvm.lifetime.start.p0(i64 8, ptr %17) #25
  %70 = load ptr, ptr %11, align 8, !tbaa !95
  %71 = load i64, ptr %8, align 8, !tbaa !7
  call void @convert_umethod_to_method_components(ptr noundef %70, i64 noundef %71, ptr noundef %14, ptr noundef %15, ptr noundef %16, ptr noundef %17, i1 noundef zeroext false)
  call void @llvm.lifetime.start.p0(i64 40, ptr %18) #25
  %72 = getelementptr inbounds nuw %struct.METHOD, ptr %18, i32 0, i32 0
  %73 = load i64, ptr %8, align 8, !tbaa !7
  store i64 %73, ptr %72, align 8, !tbaa !103
  %74 = getelementptr inbounds nuw %struct.METHOD, ptr %18, i32 0, i32 1
  %75 = load i64, ptr %15, align 8, !tbaa !7
  store i64 %75, ptr %74, align 8, !tbaa !123
  %76 = getelementptr inbounds nuw %struct.METHOD, ptr %18, i32 0, i32 2
  store i64 0, ptr %76, align 8, !tbaa !97
  %77 = getelementptr inbounds nuw %struct.METHOD, ptr %18, i32 0, i32 3
  %78 = load i64, ptr %14, align 8, !tbaa !7
  store i64 %78, ptr %77, align 8, !tbaa !124
  %79 = getelementptr inbounds nuw %struct.METHOD, ptr %18, i32 0, i32 4
  %80 = load ptr, ptr %17, align 8, !tbaa !108
  store ptr %80, ptr %79, align 8, !tbaa !104
  %81 = load ptr, ptr %10, align 8, !tbaa !19
  %82 = load i32, ptr %5, align 4, !tbaa !36
  %83 = load ptr, ptr %6, align 8, !tbaa !35
  %84 = load i64, ptr %9, align 8, !tbaa !7
  %85 = call i32 @rb_keyword_given_p()
  %86 = icmp ne i32 %85, 0
  %87 = xor i1 %86, true
  %88 = xor i1 %87, true
  %89 = zext i1 %88 to i32
  %90 = call i64 @call_method_data(ptr noundef %81, ptr noundef %18, i32 noundef %82, ptr noundef %83, i64 noundef %84, i32 noundef %89)
  store i64 %90, ptr %4, align 8
  store i32 1, ptr %13, align 4
  call void @llvm.lifetime.end.p0(i64 40, ptr %18) #25
  call void @llvm.lifetime.end.p0(i64 8, ptr %17) #25
  call void @llvm.lifetime.end.p0(i64 8, ptr %16) #25
  call void @llvm.lifetime.end.p0(i64 8, ptr %15) #25
  call void @llvm.lifetime.end.p0(i64 8, ptr %14) #25
  br label %91

91:                                               ; preds = %69, %51
  call void @llvm.lifetime.end.p0(i64 8, ptr %12) #25
  call void @llvm.lifetime.end.p0(i64 8, ptr %11) #25
  call void @llvm.lifetime.end.p0(i64 8, ptr %10) #25
  call void @llvm.lifetime.end.p0(i64 8, ptr %9) #25
  call void @llvm.lifetime.end.p0(i64 8, ptr %8) #25
  %92 = load i64, ptr %4, align 8
  ret i64 %92
}