; Function Attrs: nounwind sspstrong uwtable
define internal i64 @umethod_bind_call(i32 noundef %0, ptr noundef %1, i64 noundef %2) #0 {
  %4 = alloca i64, align 8
  %5 = alloca i64, align 8
  %6 = alloca i64, align 8
  %7 = alloca ptr, align 8
  %8 = icmp slt i32 %0, 1
  br i1 %8, label %9, label %rb_check_arity.exit

9:                                                ; preds = %3
  tail call void @rb_error_arity(i32 noundef %0, i32 noundef 1, i32 noundef -1) #22
  unreachable

rb_check_arity.exit:                              ; preds = %3
  %10 = load i64, ptr %1, align 8, !tbaa !36
  %11 = add nsw i32 %0, -1
  %12 = getelementptr i8, ptr %1, i64 8
  %13 = tail call i32 @rb_block_given_p() #21
  %.not = icmp eq i32 %13, 0
  br i1 %.not, label %17, label %14

14:                                               ; preds = %rb_check_arity.exit
  %15 = load i64, ptr @rb_cProc, align 8, !tbaa !36
  %16 = tail call fastcc i64 @proc_new(i64 noundef %15, i8 noundef signext 0)
  br label %17

17:                                               ; preds = %rb_check_arity.exit, %14
  %18 = phi i64 [ %16, %14 ], [ 4, %rb_check_arity.exit ]
  %19 = tail call align 8 ptr @llvm.threadlocal.address.p0(ptr align 8 @ruby_current_ec)
  %20 = load ptr, ptr %19, align 8, !tbaa !20
  %21 = tail call ptr @rb_check_typeddata(i64 noundef %2, ptr noundef nonnull @method_data_type) #21
  %22 = icmp eq i64 %10, 0
  %23 = and i64 %10, 7
  %24 = icmp ne i64 %23, 0
  %25 = or i1 %22, %24
  br i1 %25, label %29, label %26

26:                                               ; preds = %17
  %27 = inttoptr i64 %10 to ptr
  %28 = getelementptr inbounds nuw i8, ptr %27, i64 8
  br label %rb_class_of.exit

29:                                               ; preds = %17
  switch i64 %10, label %32 [
    i64 0, label %rb_class_of.exit
    i64 4, label %30
    i64 20, label %31
  ]

30:                                               ; preds = %29
  br label %rb_class_of.exit

31:                                               ; preds = %29
  br label %rb_class_of.exit

32:                                               ; preds = %29
  %33 = and i64 %10, 1
  %.not.i = icmp eq i64 %33, 0
  br i1 %.not.i, label %34, label %rb_class_of.exit

34:                                               ; preds = %32
  %35 = and i64 %10, 254
  %36 = icmp eq i64 %35, 12
  %spec.select.i = select i1 %36, ptr @rb_cSymbol, ptr @rb_cFloat
  br label %rb_class_of.exit

rb_class_of.exit:                                 ; preds = %26, %29, %30, %31, %32, %34
  %.0.in.i = phi ptr [ @rb_cNilClass, %30 ], [ @rb_cTrueClass, %31 ], [ %28, %26 ], [ @rb_cFalseClass, %29 ], [ @rb_cInteger, %32 ], [ %spec.select.i, %34 ]
  %.0.i = load i64, ptr %.0.in.i, align 8, !tbaa !36
  %37 = getelementptr inbounds nuw i8, ptr %21, i64 32
  %38 = load ptr, ptr %37, align 8, !tbaa !74
  %39 = getelementptr inbounds nuw i8, ptr %38, i64 24
  %40 = load i64, ptr %39, align 8, !tbaa !87
  %41 = tail call ptr @rb_callable_method_entry(i64 noundef %.0.i, i64 noundef %40) #21
  %42 = load ptr, ptr %37, align 8, !tbaa !74
  %43 = icmp eq ptr %42, %41
  br i1 %43, label %44, label %54

44:                                               ; preds = %rb_class_of.exit
  %45 = icmp eq i64 %18, 4
  %46 = select i1 %45, i64 0, i64 %18
  %47 = getelementptr inbounds nuw i8, ptr %20, i64 120
  store i64 %46, ptr %47, align 8, !tbaa !85
  %48 = getelementptr inbounds nuw i8, ptr %41, i64 24
  %49 = load i64, ptr %48, align 8, !tbaa !129
  %50 = tail call i32 @rb_keyword_given_p() #21
  %51 = icmp ne i32 %50, 0
  %52 = zext i1 %51 to i32
  %53 = tail call i64 @rb_vm_call_kw(ptr noundef %20, i64 noundef %10, i64 noundef %49, i32 noundef %11, ptr noundef %12, ptr noundef %41, i32 noundef %52) #21
  br label %69

54:                                               ; preds = %rb_class_of.exit
  call void @llvm.lifetime.start.p0(i64 8, ptr nonnull %4) #21
  call void @llvm.lifetime.start.p0(i64 8, ptr nonnull %5) #21
  call void @llvm.lifetime.start.p0(i64 8, ptr nonnull %6) #21
  call void @llvm.lifetime.start.p0(i64 8, ptr nonnull %7) #21
  call fastcc void @convert_umethod_to_method_components(ptr noundef nonnull %21, i64 noundef %10, ptr noundef %4, ptr noundef %5, ptr noundef %6, ptr noundef %7, i1 noundef zeroext false)
  %55 = load ptr, ptr %7, align 8, !tbaa !128
  %56 = tail call i32 @rb_keyword_given_p() #21
  %57 = icmp eq i64 %18, 4
  %58 = select i1 %57, i64 0, i64 %18
  %59 = getelementptr inbounds nuw i8, ptr %20, i64 120
  store i64 %58, ptr %59, align 8, !tbaa !85
  %60 = getelementptr inbounds nuw i8, ptr %55, i64 8
  %61 = load i64, ptr %60, align 8, !tbaa !86
  %62 = icmp eq i64 %61, 0
  br i1 %62, label %63, label %call_method_data.exit

63:                                               ; preds = %54
  tail call void (ptr, ...) @rb_bug(ptr noundef nonnull @.str.75) #23
  unreachable

call_method_data.exit:                            ; preds = %54
  %64 = icmp ne i32 %56, 0
  %65 = zext i1 %64 to i32
  %66 = getelementptr inbounds nuw i8, ptr %55, i64 24
  %67 = load i64, ptr %66, align 8, !tbaa !87
  %68 = tail call i64 @rb_vm_call_kw(ptr noundef nonnull %20, i64 noundef %10, i64 noundef %67, i32 noundef %11, ptr noundef %12, ptr noundef nonnull %55, i32 noundef %65) #21
  call void @llvm.lifetime.end.p0(i64 8, ptr nonnull %7) #21
  call void @llvm.lifetime.end.p0(i64 8, ptr nonnull %6) #21
  call void @llvm.lifetime.end.p0(i64 8, ptr nonnull %5) #21
  call void @llvm.lifetime.end.p0(i64 8, ptr nonnull %4) #21
  br label %69

69:                                               ; preds = %call_method_data.exit, %44
  %.0 = phi i64 [ %53, %44 ], [ %68, %call_method_data.exit ]
  ret i64 %.0
}